target datalayout = "e-m:e-p270:32:32-p271:32:32-p272:64:64-i64:64-i128:128-f80:128-n8:16:32:64-S128"
target triple = "x86_64-pc-linux-gnu"

%"class.boost::core::basic_string_view" = type { ptr, i64 }
%"struct.boost::urls::detail::url_impl" = type <{ ptr, [8 x i64], [7 x i64], i64, i64, [16 x i8], i16, [2 x i8], i32, i16, i8, [5 x i8] }>
%"class.boost::urls::detail::query_ref" = type <{ ptr, ptr, i64, i64, i64, i8, [7 x i8] }>

; Function Attrs: mustprogress nounwind uwtable
define linkonce_odr hidden void @_ZN5boost4core17basic_string_viewIcEC2EPKcm(ptr noundef nonnull align 8 dereferenceable(16) %0, ptr noundef %1, i64 noundef %2) unnamed_addr #1 comdat align 2 {
  %4 = alloca ptr, align 8
  %5 = alloca ptr, align 8
  %6 = alloca i64, align 8
  store ptr %0, ptr %4, align 8, !tbaa !3
  store ptr %1, ptr %5, align 8, !tbaa !3
  store i64 %2, ptr %6, align 8, !tbaa !8
  %7 = load ptr, ptr %4, align 8
  %8 = getelementptr inbounds nuw %"class.boost::core::basic_string_view", ptr %7, i32 0, i32 0
  %9 = load ptr, ptr %5, align 8, !tbaa !3
  store ptr %9, ptr %8, align 8, !tbaa !37
  %10 = getelementptr inbounds nuw %"class.boost::core::basic_string_view", ptr %7, i32 0, i32 1
  %11 = load i64, ptr %6, align 8, !tbaa !8
  store i64 %11, ptr %10, align 8, !tbaa !20
  ret void
}

; Function Attrs: mustprogress nounwind uwtable
define noundef i64 @_ZNK5boost4urls6detail8url_impl3lenEi(ptr noundef nonnull align 8 dereferenceable(171) %0, i32 noundef %1) #1 align 2 {
  %3 = alloca ptr, align 8
  %4 = alloca i32, align 4
  store ptr %0, ptr %3, align 8, !tbaa !3
  store i32 %1, ptr %4, align 4, !tbaa !16
  %5 = load ptr, ptr %3, align 8
  %6 = load i32, ptr %4, align 4, !tbaa !16
  %7 = icmp eq i32 %6, 7
  br i1 %7, label %8, label %9

8:                                                ; preds = %2
  br label %16

9:                                                ; preds = %2
  %10 = load i32, ptr %4, align 4, !tbaa !16
  %11 = add nsw i32 %10, 1
  %12 = call noundef i64 @_ZNK5boost4urls6detail8url_impl6offsetEi(ptr noundef nonnull align 8 dereferenceable(171) %5, i32 noundef %11) #5
  %13 = load i32, ptr %4, align 4, !tbaa !16
  %14 = call noundef i64 @_ZNK5boost4urls6detail8url_impl6offsetEi(ptr noundef nonnull align 8 dereferenceable(171) %5, i32 noundef %13) #5
  %15 = sub i64 %12, %14
  br label %16

16:                                               ; preds = %9, %8
  %17 = phi i64 [ 0, %8 ], [ %15, %9 ]
  ret i64 %17
}

; Function Attrs: mustprogress nounwind uwtable
define noundef i64 @_ZNK5boost4urls6detail8url_impl6offsetEi(ptr noundef nonnull align 8 dereferenceable(171) %0, i32 noundef %1) #1 align 2 {
  %3 = alloca ptr, align 8
  %4 = alloca i32, align 4
  store ptr %0, ptr %3, align 8, !tbaa !3
  store i32 %1, ptr %4, align 4, !tbaa !16
  %5 = load ptr, ptr %3, align 8
  %6 = load i32, ptr %4, align 4, !tbaa !16
  %7 = icmp eq i32 %6, -1
  br i1 %7, label %8, label %9

8:                                                ; preds = %2
  br label %15

9:                                                ; preds = %2
  %10 = getelementptr inbounds nuw %"struct.boost::urls::detail::url_impl", ptr %5, i32 0, i32 1
  %11 = load i32, ptr %4, align 4, !tbaa !16
  %12 = sext i32 %11 to i64
  %13 = getelementptr inbounds [8 x i64], ptr %10, i64 0, i64 %12
  %14 = load i64, ptr %13, align 8, !tbaa !8
  br label %15

15:                                               ; preds = %9, %8
  %16 = phi i64 [ 0, %8 ], [ %14, %9 ]
  ret i64 %16
}

; Function Attrs: mustprogress nounwind uwtable
define linkonce_odr hidden noundef i64 @_ZNK5boost4core17basic_string_viewIcE4sizeEv(ptr noundef nonnull align 8 dereferenceable(16) %0) #1 comdat align 2 {
  %2 = alloca ptr, align 8
  store ptr %0, ptr %2, align 8, !tbaa !3
  %3 = load ptr, ptr %2, align 8
  %4 = getelementptr inbounds nuw %"class.boost::core::basic_string_view", ptr %3, i32 0, i32 1
  %5 = load i64, ptr %4, align 8, !tbaa !20
  ret i64 %5
}

; Function Attrs: mustprogress nounwind uwtable
define linkonce_odr hidden noundef ptr @_ZNK5boost4core17basic_string_viewIcE4dataEv(ptr noundef nonnull align 8 dereferenceable(16) %0) #1 comdat align 2 {
  %2 = alloca ptr, align 8
  store ptr %0, ptr %2, align 8, !tbaa !3
  %3 = load ptr, ptr %2, align 8
  %4 = getelementptr inbounds nuw %"class.boost::core::basic_string_view", ptr %3, i32 0, i32 0
  %5 = load ptr, ptr %4, align 8, !tbaa !37
  ret ptr %5
}

; Function Attrs: mustprogress nounwind uwtable
define linkonce_odr hidden void @_ZN5boost4core17basic_string_viewIcE13remove_prefixEm(ptr noundef nonnull align 8 dereferenceable(16) %0, i64 noundef %1) #1 comdat align 2 {
  %3 = alloca ptr, align 8
  %4 = alloca i64, align 8
  store ptr %0, ptr %3, align 8, !tbaa !3
  store i64 %1, ptr %4, align 8, !tbaa !8
  %5 = load ptr, ptr %3, align 8
  %6 = load i64, ptr %4, align 8, !tbaa !8
  %7 = getelementptr inbounds nuw %"class.boost::core::basic_string_view", ptr %5, i32 0, i32 0
  %8 = load ptr, ptr %7, align 8, !tbaa !37
  %9 = getelementptr inbounds nuw i8, ptr %8, i64 %6
  store ptr %9, ptr %7, align 8, !tbaa !37
  %10 = load i64, ptr %4, align 8, !tbaa !8
  %11 = getelementptr inbounds nuw %"class.boost::core::basic_string_view", ptr %5, i32 0, i32 1
  %12 = load i64, ptr %11, align 8, !tbaa !20
  %13 = sub i64 %12, %10
  store i64 %13, ptr %11, align 8, !tbaa !20
  ret void
}

; Function Attrs: mustprogress nounwind uwtable
define linkonce_odr hidden noundef zeroext i1 @_ZNK5boost4core17basic_string_viewIcE5emptyEv(ptr noundef nonnull align 8 dereferenceable(16) %0) #1 comdat align 2 {
  %2 = alloca ptr, align 8
  store ptr %0, ptr %2, align 8, !tbaa !3
  %3 = load ptr, ptr %2, align 8
  %4 = getelementptr inbounds nuw %"class.boost::core::basic_string_view", ptr %3, i32 0, i32 1
  %5 = load i64, ptr %4, align 8, !tbaa !20
  %6 = icmp eq i64 %5, 0
  ret i1 %6
}

; Function Attrs: mustprogress nounwind uwtable
define { ptr, i64 } @_ZNK5boost4urls6detail8url_impl3getEi(ptr noundef nonnull align 8 dereferenceable(171) %0, i32 noundef %1) #1 align 2 {
  %3 = alloca %"class.boost::core::basic_string_view", align 8
  %4 = alloca ptr, align 8
  %5 = alloca i32, align 4
  store ptr %0, ptr %4, align 8, !tbaa !3
  store i32 %1, ptr %5, align 4, !tbaa !16
  %6 = load ptr, ptr %4, align 8
  %7 = getelementptr inbounds nuw %"struct.boost::urls::detail::url_impl", ptr %6, i32 0, i32 0
  %8 = load ptr, ptr %7, align 8, !tbaa !36
  %9 = load i32, ptr %5, align 4, !tbaa !16
  %10 = call noundef i64 @_ZNK5boost4urls6detail8url_impl6offsetEi(ptr noundef nonnull align 8 dereferenceable(171) %6, i32 noundef %9) #5
  %11 = getelementptr inbounds nuw i8, ptr %8, i64 %10
  %12 = load i32, ptr %5, align 4, !tbaa !16
  %13 = call noundef i64 @_ZNK5boost4urls6detail8url_impl3lenEi(ptr noundef nonnull align 8 dereferenceable(171) %6, i32 noundef %12) #5
  call void @_ZN5boost4core17basic_string_viewIcEC2EPKcm(ptr noundef nonnull align 8 dereferenceable(16) %3, ptr noundef %11, i64 noundef %13) #5
  %14 = load { ptr, i64 }, ptr %3, align 8
  ret { ptr, i64 } %14
}

; Function Attrs: mustprogress nounwind uwtable
define void @_ZN5boost4urls6detail9query_refC2ERKNS1_8url_implE(ptr noundef nonnull align 8 dereferenceable(41) %0, ptr noundef nonnull align 8 dereferenceable(171) %1) unnamed_addr #1 align 2 {
  %3 = alloca ptr, align 8
  %4 = alloca ptr, align 8
  %5 = alloca %"class.boost::core::basic_string_view", align 8
  store ptr %0, ptr %3, align 8, !tbaa !3
  store ptr %1, ptr %4, align 8, !tbaa !3
  %6 = load ptr, ptr %3, align 8
  %7 = getelementptr inbounds nuw %"class.boost::urls::detail::query_ref", ptr %6, i32 0, i32 0
  store ptr null, ptr %7, align 8, !tbaa !48
  %8 = getelementptr inbounds nuw %"class.boost::urls::detail::query_ref", ptr %6, i32 0, i32 1
  store ptr null, ptr %8, align 8, !tbaa !51
  %9 = getelementptr inbounds nuw %"class.boost::urls::detail::query_ref", ptr %6, i32 0, i32 2
  store i64 0, ptr %9, align 8, !tbaa !52
  %10 = getelementptr inbounds nuw %"class.boost::urls::detail::query_ref", ptr %6, i32 0, i32 3
  store i64 0, ptr %10, align 8, !tbaa !53
  %11 = getelementptr inbounds nuw %"class.boost::urls::detail::query_ref", ptr %6, i32 0, i32 4
  store i64 0, ptr %11, align 8, !tbaa !54
  %12 = getelementptr inbounds nuw %"class.boost::urls::detail::query_ref", ptr %6, i32 0, i32 5
  store i8 0, ptr %12, align 8, !tbaa !55
  %13 = load ptr, ptr %4, align 8, !tbaa !3
  %14 = getelementptr inbounds nuw %"struct.boost::urls::detail::url_impl", ptr %13, i32 0, i32 10
  %15 = load i8, ptr %14, align 2, !tbaa !29
  %16 = icmp eq i8 %15, 1
  br i1 %16, label %17, label %20

17:                                               ; preds = %2
  %18 = load ptr, ptr %4, align 8, !tbaa !3
  %19 = getelementptr inbounds nuw %"class.boost::urls::detail::query_ref", ptr %6, i32 0, i32 0
  store ptr %18, ptr %19, align 8, !tbaa !48
  br label %44

20:                                               ; preds = %2
  call void @llvm.lifetime.start.p0(i64 16, ptr %5) #5
  %21 = load ptr, ptr %4, align 8, !tbaa !3
  %22 = call { ptr, i64 } @_ZNK5boost4urls6detail8url_impl3getEi(ptr noundef nonnull align 8 dereferenceable(171) %21, i32 noundef 5) #5
  %23 = getelementptr inbounds nuw { ptr, i64 }, ptr %5, i32 0, i32 0
  %24 = extractvalue { ptr, i64 } %22, 0
  store ptr %24, ptr %23, align 8
  %25 = getelementptr inbounds nuw { ptr, i64 }, ptr %5, i32 0, i32 1
  %26 = extractvalue { ptr, i64 } %22, 1
  store i64 %26, ptr %25, align 8
  %27 = call noundef zeroext i1 @_ZNK5boost4core17basic_string_viewIcE5emptyEv(ptr noundef nonnull align 8 dereferenceable(16) %5) #5
  br i1 %27, label %30, label %28

28:                                               ; preds = %20
  call void @_ZN5boost4core17basic_string_viewIcE13remove_prefixEm(ptr noundef nonnull align 8 dereferenceable(16) %5, i64 noundef 1) #5
  %29 = getelementptr inbounds nuw %"class.boost::urls::detail::query_ref", ptr %6, i32 0, i32 5
  store i8 1, ptr %29, align 8, !tbaa !55
  br label %30

30:                                               ; preds = %28, %20
  %31 = call noundef ptr @_ZNK5boost4core17basic_string_viewIcE4dataEv(ptr noundef nonnull align 8 dereferenceable(16) %5) #5
  %32 = getelementptr inbounds nuw %"class.boost::urls::detail::query_ref", ptr %6, i32 0, i32 1
  store ptr %31, ptr %32, align 8, !tbaa !51
  %33 = call noundef i64 @_ZNK5boost4core17basic_string_viewIcE4sizeEv(ptr noundef nonnull align 8 dereferenceable(16) %5) #5
  %34 = getelementptr inbounds nuw %"class.boost::urls::detail::query_ref", ptr %6, i32 0, i32 2
  store i64 %33, ptr %34, align 8, !tbaa !52
  %35 = load ptr, ptr %4, align 8, !tbaa !3
  %36 = getelementptr inbounds nuw %"struct.boost::urls::detail::url_impl", ptr %35, i32 0, i32 4
  %37 = load i64, ptr %36, align 8, !tbaa !35
  %38 = getelementptr inbounds nuw %"class.boost::urls::detail::query_ref", ptr %6, i32 0, i32 3
  store i64 %37, ptr %38, align 8, !tbaa !53
  %39 = load ptr, ptr %4, align 8, !tbaa !3
  %40 = getelementptr inbounds nuw %"struct.boost::urls::detail::url_impl", ptr %39, i32 0, i32 2
  %41 = getelementptr inbounds [7 x i64], ptr %40, i64 0, i64 5
  %42 = load i64, ptr %41, align 8, !tbaa !8
  %43 = getelementptr inbounds nuw %"class.boost::urls::detail::query_ref", ptr %6, i32 0, i32 4
  store i64 %42, ptr %43, align 8, !tbaa !54
  call void @llvm.lifetime.end.p0(i64 16, ptr %5) #5
  br label %44

44:                                               ; preds = %30, %17
  ret void
}