; Function Attrs: mustprogress nofree norecurse nosync nounwind willreturn memory(argmem: readwrite) uwtable
define void @_ZN5boost4urls6detail9query_refC2ERKNS1_8url_implE(ptr nocapture noundef nonnull writeonly align 8 dereferenceable(41) %0, ptr noundef nonnull align 8 dereferenceable(171) %1) unnamed_addr #6 align 2 {
  %3 = getelementptr inbounds nuw i8, ptr %0, i64 8
  %4 = getelementptr inbounds nuw i8, ptr %0, i64 16
  %5 = getelementptr inbounds nuw i8, ptr %0, i64 24
  %6 = getelementptr inbounds nuw i8, ptr %0, i64 32
  %7 = getelementptr inbounds nuw i8, ptr %0, i64 40
  %8 = getelementptr inbounds nuw i8, ptr %1, i64 170
  tail call void @llvm.memset.p0.i64(ptr noundef nonnull align 8 dereferenceable(41) %0, i8 0, i64 41, i1 false)
  %9 = load i8, ptr %8, align 2, !tbaa !23
  %10 = icmp eq i8 %9, 1
  br i1 %10, label %11, label %12

11:                                               ; preds = %2
  store ptr %1, ptr %0, align 8, !tbaa !49
  br label %29

12:                                               ; preds = %2
  %13 = load ptr, ptr %1, align 8, !tbaa !31
  %14 = getelementptr inbounds i8, ptr %1, i64 48
  %15 = load i64, ptr %14, align 8, !tbaa !13
  %16 = getelementptr inbounds nuw i8, ptr %13, i64 %15
  %17 = getelementptr inbounds i8, ptr %1, i64 56
  %18 = load i64, ptr %17, align 8, !tbaa !13
  %19 = icmp eq i64 %18, %15
  br i1 %19, label %24, label %20

20:                                               ; preds = %12
  %21 = getelementptr inbounds nuw i8, ptr %16, i64 1
  %22 = xor i64 %15, -1
  %23 = add i64 %18, %22
  store i8 1, ptr %7, align 8, !tbaa !56
  br label %24

24:                                               ; preds = %20, %12
  %.sroa.6.0 = phi i64 [ 0, %12 ], [ %23, %20 ]
  %.sroa.0.0 = phi ptr [ %16, %12 ], [ %21, %20 ]
  store ptr %.sroa.0.0, ptr %3, align 8, !tbaa !52
  store i64 %.sroa.6.0, ptr %4, align 8, !tbaa !53
  %25 = getelementptr inbounds nuw i8, ptr %1, i64 136
  %26 = load i64, ptr %25, align 8, !tbaa !30
  store i64 %26, ptr %5, align 8, !tbaa !54
  %27 = getelementptr inbounds i8, ptr %1, i64 112
  %28 = load i64, ptr %27, align 8, !tbaa !13
  store i64 %28, ptr %6, align 8, !tbaa !55
  br label %29

29:                                               ; preds = %24, %11
  ret void
}